; Function Attrs: nounwind sspstrong uwtable
define internal noundef i64 @cycle_i(i64 %0, i64 noundef %1, i32 noundef %2, ptr noundef %3, i64 %4) #0 {
  switch i32 %2, label %rb_enum_values_pack.exit [
    i32 0, label %rb_enum_values_pack.exit.thread
    i32 1, label %6
  ]

6:                                                ; preds = %5
  %7 = load i64, ptr %3, align 8, !tbaa !7
  br label %rb_enum_values_pack.exit.thread

rb_enum_values_pack.exit:                         ; preds = %5
  %8 = sext i32 %2 to i64
  %9 = tail call i64 @rb_ary_new_from_values(i64 noundef %8, ptr noundef %3) #14
  %10 = icmp sgt i32 %2, 1
  br i1 %10, label %.thread, label %rb_enum_values_pack.exit.thread

.thread:                                          ; preds = %rb_enum_values_pack.exit
  %11 = tail call i64 @rb_ary_push(i64 noundef %1, i64 noundef %9) #14
  %12 = tail call i64 @rb_yield_force_blockarg(i64 noundef %9) #14
  br label %enum_yield.exit

rb_enum_values_pack.exit.thread:                  ; preds = %6, %5, %rb_enum_values_pack.exit
  %.0.i10 = phi i64 [ %9, %rb_enum_values_pack.exit ], [ 4, %5 ], [ %7, %6 ]
  %13 = sext i32 %2 to i64
  %14 = tail call i64 @rb_ary_new_from_values(i64 noundef %13, ptr noundef %3) #14
  %15 = tail call i64 @rb_ary_push(i64 noundef %1, i64 noundef %14) #14
  %16 = icmp eq i32 %2, 1
  br i1 %16, label %17, label %19

17:                                               ; preds = %rb_enum_values_pack.exit.thread
  %18 = tail call i64 @rb_yield(i64 noundef %.0.i10) #14
  br label %enum_yield.exit

19:                                               ; preds = %rb_enum_values_pack.exit.thread
  %20 = tail call i64 @rb_yield_values2(i32 noundef 0, ptr noundef null) #14
  br label %enum_yield.exit

enum_yield.exit:                                  ; preds = %.thread, %17, %19
  ret i64 4
}